target datalayout = "e-m:e-p270:32:32-p271:32:32-p272:64:64-i64:64-i128:128-f80:128-n8:16:32:64-S128"
target triple = "x86_64-pc-linux-gnu"

%struct.JumbleState = type { ptr, i64, ptr, i32, i32, i32 }
%struct.CreateStmt = type { i32, ptr, ptr, ptr, ptr, ptr, ptr, ptr, ptr, ptr, i32, ptr, ptr, i8 }
%struct.CreateForeignTableStmt = type { %struct.CreateStmt, ptr, ptr }

; Function Attrs: inlinehint nounwind uwtable
define internal i64 @UInt64GetDatum(i64 noundef %0) #4 {
  %2 = alloca i64, align 8
  store i64 %0, ptr %2, align 8
  %3 = load i64, ptr %2, align 8
  ret i64 %3
}

; Function Attrs: inlinehint nounwind uwtable
define internal i64 @DatumGetUInt64(i64 noundef %0) #4 {
  %2 = alloca i64, align 8
  store i64 %0, ptr %2, align 8
  %3 = load i64, ptr %2, align 8
  ret i64 %3
}

; Function Attrs: inlinehint nounwind uwtable
define internal i64 @hash_any_extended(ptr noundef %0, i32 noundef %1, i64 noundef %2) #4 {
  %4 = alloca ptr, align 8
  %5 = alloca i32, align 4
  %6 = alloca i64, align 8
  store ptr %0, ptr %4, align 8
  store i32 %1, ptr %5, align 4
  store i64 %2, ptr %6, align 8
  %7 = load ptr, ptr %4, align 8
  %8 = load i32, ptr %5, align 4
  %9 = load i64, ptr %6, align 8
  %10 = call i64 @hash_bytes_extended(ptr noundef %7, i32 noundef %8, i64 noundef %9)
  %11 = call i64 @UInt64GetDatum(i64 noundef %10)
  ret i64 %11
}

; Function Attrs: nounwind uwtable
define internal void @AppendJumble(ptr noundef %0, ptr noundef %1, i64 noundef %2) #0 {
  %4 = alloca ptr, align 8
  %5 = alloca ptr, align 8
  %6 = alloca i64, align 8
  %7 = alloca ptr, align 8
  %8 = alloca i64, align 8
  %9 = alloca i64, align 8
  %10 = alloca i64, align 8
  store ptr %0, ptr %4, align 8
  store ptr %1, ptr %5, align 8
  store i64 %2, ptr %6, align 8
  call void @llvm.lifetime.start.p0(i64 8, ptr %7) #8
  %11 = load ptr, ptr %4, align 8
  %12 = getelementptr inbounds nuw %struct.JumbleState, ptr %11, i32 0, i32 0
  %13 = load ptr, ptr %12, align 8
  store ptr %13, ptr %7, align 8
  call void @llvm.lifetime.start.p0(i64 8, ptr %8) #8
  %14 = load ptr, ptr %4, align 8
  %15 = getelementptr inbounds nuw %struct.JumbleState, ptr %14, i32 0, i32 1
  %16 = load i64, ptr %15, align 8
  store i64 %16, ptr %8, align 8
  br label %17

17:                                               ; preds = %38, %3
  %18 = load i64, ptr %6, align 8
  %19 = icmp ugt i64 %18, 0
  br i1 %19, label %20, label %54

20:                                               ; preds = %17
  call void @llvm.lifetime.start.p0(i64 8, ptr %9) #8
  %21 = load i64, ptr %8, align 8
  %22 = icmp uge i64 %21, 1024
  br i1 %22, label %23, label %28

23:                                               ; preds = %20
  call void @llvm.lifetime.start.p0(i64 8, ptr %10) #8
  %24 = load ptr, ptr %7, align 8
  %25 = call i64 @hash_any_extended(ptr noundef %24, i32 noundef 1024, i64 noundef 0)
  %26 = call i64 @DatumGetUInt64(i64 noundef %25)
  store i64 %26, ptr %10, align 8
  %27 = load ptr, ptr %7, align 8
  call void @llvm.memcpy.p0.p0.i64(ptr align 1 %27, ptr align 8 %10, i64 8, i1 false)
  store i64 8, ptr %8, align 8
  call void @llvm.lifetime.end.p0(i64 8, ptr %10) #8
  br label %28

28:                                               ; preds = %23, %20
  %29 = load i64, ptr %6, align 8
  %30 = load i64, ptr %8, align 8
  %31 = sub i64 1024, %30
  %32 = icmp ult i64 %29, %31
  br i1 %32, label %33, label %35

33:                                               ; preds = %28
  %34 = load i64, ptr %6, align 8
  br label %38

35:                                               ; preds = %28
  %36 = load i64, ptr %8, align 8
  %37 = sub i64 1024, %36
  br label %38

38:                                               ; preds = %35, %33
  %39 = phi i64 [ %34, %33 ], [ %37, %35 ]
  store i64 %39, ptr %9, align 8
  %40 = load ptr, ptr %7, align 8
  %41 = load i64, ptr %8, align 8
  %42 = getelementptr inbounds nuw i8, ptr %40, i64 %41
  %43 = load ptr, ptr %5, align 8
  %44 = load i64, ptr %9, align 8
  call void @llvm.memcpy.p0.p0.i64(ptr align 1 %42, ptr align 1 %43, i64 %44, i1 false)
  %45 = load i64, ptr %9, align 8
  %46 = load i64, ptr %8, align 8
  %47 = add i64 %46, %45
  store i64 %47, ptr %8, align 8
  %48 = load i64, ptr %9, align 8
  %49 = load ptr, ptr %5, align 8
  %50 = getelementptr inbounds nuw i8, ptr %49, i64 %48
  store ptr %50, ptr %5, align 8
  %51 = load i64, ptr %9, align 8
  %52 = load i64, ptr %6, align 8
  %53 = sub i64 %52, %51
  store i64 %53, ptr %6, align 8
  call void @llvm.lifetime.end.p0(i64 8, ptr %9) #8
  br label %17, !llvm.loop !7

54:                                               ; preds = %17
  %55 = load i64, ptr %8, align 8
  %56 = load ptr, ptr %4, align 8
  %57 = getelementptr inbounds nuw %struct.JumbleState, ptr %56, i32 0, i32 1
  store i64 %55, ptr %57, align 8
  call void @llvm.lifetime.end.p0(i64 8, ptr %8) #8
  call void @llvm.lifetime.end.p0(i64 8, ptr %7) #8
  ret void
}

; Function Attrs: nounwind uwtable
define internal void @_jumbleCreateForeignTableStmt(ptr noundef %0, ptr noundef %1) #0 {
  %3 = alloca ptr, align 8
  %4 = alloca ptr, align 8
  %5 = alloca ptr, align 8
  store ptr %0, ptr %3, align 8
  store ptr %1, ptr %4, align 8
  call void @llvm.lifetime.start.p0(i64 8, ptr %5) #8
  %6 = load ptr, ptr %4, align 8
  store ptr %6, ptr %5, align 8
  %7 = load ptr, ptr %3, align 8
  %8 = load ptr, ptr %5, align 8
  %9 = getelementptr inbounds nuw %struct.CreateForeignTableStmt, ptr %8, i32 0, i32 0
  %10 = getelementptr inbounds nuw %struct.CreateStmt, ptr %9, i32 0, i32 1
  %11 = load ptr, ptr %10, align 8
  call void @_jumbleNode(ptr noundef %7, ptr noundef %11)
  %12 = load ptr, ptr %3, align 8
  %13 = load ptr, ptr %5, align 8
  %14 = getelementptr inbounds nuw %struct.CreateForeignTableStmt, ptr %13, i32 0, i32 0
  %15 = getelementptr inbounds nuw %struct.CreateStmt, ptr %14, i32 0, i32 2
  %16 = load ptr, ptr %15, align 8
  call void @_jumbleNode(ptr noundef %12, ptr noundef %16)
  %17 = load ptr, ptr %3, align 8
  %18 = load ptr, ptr %5, align 8
  %19 = getelementptr inbounds nuw %struct.CreateForeignTableStmt, ptr %18, i32 0, i32 0
  %20 = getelementptr inbounds nuw %struct.CreateStmt, ptr %19, i32 0, i32 3
  %21 = load ptr, ptr %20, align 8
  call void @_jumbleNode(ptr noundef %17, ptr noundef %21)
  %22 = load ptr, ptr %3, align 8
  %23 = load ptr, ptr %5, align 8
  %24 = getelementptr inbounds nuw %struct.CreateForeignTableStmt, ptr %23, i32 0, i32 0
  %25 = getelementptr inbounds nuw %struct.CreateStmt, ptr %24, i32 0, i32 4
  %26 = load ptr, ptr %25, align 8
  call void @_jumbleNode(ptr noundef %22, ptr noundef %26)
  %27 = load ptr, ptr %3, align 8
  %28 = load ptr, ptr %5, align 8
  %29 = getelementptr inbounds nuw %struct.CreateForeignTableStmt, ptr %28, i32 0, i32 0
  %30 = getelementptr inbounds nuw %struct.CreateStmt, ptr %29, i32 0, i32 5
  %31 = load ptr, ptr %30, align 8
  call void @_jumbleNode(ptr noundef %27, ptr noundef %31)
  %32 = load ptr, ptr %3, align 8
  %33 = load ptr, ptr %5, align 8
  %34 = getelementptr inbounds nuw %struct.CreateForeignTableStmt, ptr %33, i32 0, i32 0
  %35 = getelementptr inbounds nuw %struct.CreateStmt, ptr %34, i32 0, i32 6
  %36 = load ptr, ptr %35, align 8
  call void @_jumbleNode(ptr noundef %32, ptr noundef %36)
  %37 = load ptr, ptr %3, align 8
  %38 = load ptr, ptr %5, align 8
  %39 = getelementptr inbounds nuw %struct.CreateForeignTableStmt, ptr %38, i32 0, i32 0
  %40 = getelementptr inbounds nuw %struct.CreateStmt, ptr %39, i32 0, i32 7
  %41 = load ptr, ptr %40, align 8
  call void @_jumbleNode(ptr noundef %37, ptr noundef %41)
  %42 = load ptr, ptr %3, align 8
  %43 = load ptr, ptr %5, align 8
  %44 = getelementptr inbounds nuw %struct.CreateForeignTableStmt, ptr %43, i32 0, i32 0
  %45 = getelementptr inbounds nuw %struct.CreateStmt, ptr %44, i32 0, i32 8
  %46 = load ptr, ptr %45, align 8
  call void @_jumbleNode(ptr noundef %42, ptr noundef %46)
  %47 = load ptr, ptr %3, align 8
  %48 = load ptr, ptr %5, align 8
  %49 = getelementptr inbounds nuw %struct.CreateForeignTableStmt, ptr %48, i32 0, i32 0
  %50 = getelementptr inbounds nuw %struct.CreateStmt, ptr %49, i32 0, i32 9
  %51 = load ptr, ptr %50, align 8
  call void @_jumbleNode(ptr noundef %47, ptr noundef %51)
  %52 = load ptr, ptr %3, align 8
  %53 = load ptr, ptr %5, align 8
  %54 = getelementptr inbounds nuw %struct.CreateForeignTableStmt, ptr %53, i32 0, i32 0
  %55 = getelementptr inbounds nuw %struct.CreateStmt, ptr %54, i32 0, i32 10
  call void @AppendJumble(ptr noundef %52, ptr noundef %55, i64 noundef 4)
  br label %56

56:                                               ; preds = %2
  %57 = load ptr, ptr %5, align 8
  %58 = getelementptr inbounds nuw %struct.CreateForeignTableStmt, ptr %57, i32 0, i32 0
  %59 = getelementptr inbounds nuw %struct.CreateStmt, ptr %58, i32 0, i32 11
  %60 = load ptr, ptr %59, align 8
  %61 = icmp ne ptr %60, null
  br i1 %61, label %62, label %74

62:                                               ; preds = %56
  %63 = load ptr, ptr %3, align 8
  %64 = load ptr, ptr %5, align 8
  %65 = getelementptr inbounds nuw %struct.CreateForeignTableStmt, ptr %64, i32 0, i32 0
  %66 = getelementptr inbounds nuw %struct.CreateStmt, ptr %65, i32 0, i32 11
  %67 = load ptr, ptr %66, align 8
  %68 = load ptr, ptr %5, align 8
  %69 = getelementptr inbounds nuw %struct.CreateForeignTableStmt, ptr %68, i32 0, i32 0
  %70 = getelementptr inbounds nuw %struct.CreateStmt, ptr %69, i32 0, i32 11
  %71 = load ptr, ptr %70, align 8
  %72 = call i64 @strlen(ptr noundef %71) #9
  %73 = add i64 %72, 1
  call void @AppendJumble(ptr noundef %63, ptr noundef %67, i64 noundef %73)
  br label %74

74:                                               ; preds = %62, %56
  br label %75

75:                                               ; preds = %74
  br label %76

76:                                               ; preds = %75
  br label %77

77:                                               ; preds = %76
  %78 = load ptr, ptr %5, align 8
  %79 = getelementptr inbounds nuw %struct.CreateForeignTableStmt, ptr %78, i32 0, i32 0
  %80 = getelementptr inbounds nuw %struct.CreateStmt, ptr %79, i32 0, i32 12
  %81 = load ptr, ptr %80, align 8
  %82 = icmp ne ptr %81, null
  br i1 %82, label %83, label %95

83:                                               ; preds = %77
  %84 = load ptr, ptr %3, align 8
  %85 = load ptr, ptr %5, align 8
  %86 = getelementptr inbounds nuw %struct.CreateForeignTableStmt, ptr %85, i32 0, i32 0
  %87 = getelementptr inbounds nuw %struct.CreateStmt, ptr %86, i32 0, i32 12
  %88 = load ptr, ptr %87, align 8
  %89 = load ptr, ptr %5, align 8
  %90 = getelementptr inbounds nuw %struct.CreateForeignTableStmt, ptr %89, i32 0, i32 0
  %91 = getelementptr inbounds nuw %struct.CreateStmt, ptr %90, i32 0, i32 12
  %92 = load ptr, ptr %91, align 8
  %93 = call i64 @strlen(ptr noundef %92) #9
  %94 = add i64 %93, 1
  call void @AppendJumble(ptr noundef %84, ptr noundef %88, i64 noundef %94)
  br label %95

95:                                               ; preds = %83, %77
  br label %96

96:                                               ; preds = %95
  br label %97

97:                                               ; preds = %96
  %98 = load ptr, ptr %3, align 8
  %99 = load ptr, ptr %5, align 8
  %100 = getelementptr inbounds nuw %struct.CreateForeignTableStmt, ptr %99, i32 0, i32 0
  %101 = getelementptr inbounds nuw %struct.CreateStmt, ptr %100, i32 0, i32 13
  call void @AppendJumble(ptr noundef %98, ptr noundef %101, i64 noundef 1)
  br label %102

102:                                              ; preds = %97
  %103 = load ptr, ptr %5, align 8
  %104 = getelementptr inbounds nuw %struct.CreateForeignTableStmt, ptr %103, i32 0, i32 1
  %105 = load ptr, ptr %104, align 8
  %106 = icmp ne ptr %105, null
  br i1 %106, label %107, label %117

107:                                              ; preds = %102
  %108 = load ptr, ptr %3, align 8
  %109 = load ptr, ptr %5, align 8
  %110 = getelementptr inbounds nuw %struct.CreateForeignTableStmt, ptr %109, i32 0, i32 1
  %111 = load ptr, ptr %110, align 8
  %112 = load ptr, ptr %5, align 8
  %113 = getelementptr inbounds nuw %struct.CreateForeignTableStmt, ptr %112, i32 0, i32 1
  %114 = load ptr, ptr %113, align 8
  %115 = call i64 @strlen(ptr noundef %114) #9
  %116 = add i64 %115, 1
  call void @AppendJumble(ptr noundef %108, ptr noundef %111, i64 noundef %116)
  br label %117

117:                                              ; preds = %107, %102
  br label %118

118:                                              ; preds = %117
  br label %119

119:                                              ; preds = %118
  %120 = load ptr, ptr %3, align 8
  %121 = load ptr, ptr %5, align 8
  %122 = getelementptr inbounds nuw %struct.CreateForeignTableStmt, ptr %121, i32 0, i32 2
  %123 = load ptr, ptr %122, align 8
  call void @_jumbleNode(ptr noundef %120, ptr noundef %123)
  call void @llvm.lifetime.end.p0(i64 8, ptr %5) #8
  ret void
}