; Function Attrs: nounwind uwtable
define internal fastcc void @_jumbleCreateForeignTableStmt(ptr noundef %0, ptr noundef nonnull readonly captures(none) %1) unnamed_addr #0 {
  %3 = getelementptr inbounds nuw i8, ptr %1, i64 8
  %4 = load ptr, ptr %3, align 8
  tail call fastcc void @_jumbleNode(ptr noundef %0, ptr noundef %4)
  %5 = getelementptr inbounds nuw i8, ptr %1, i64 16
  %6 = load ptr, ptr %5, align 8
  tail call fastcc void @_jumbleNode(ptr noundef %0, ptr noundef %6)
  %7 = getelementptr inbounds nuw i8, ptr %1, i64 24
  %8 = load ptr, ptr %7, align 8
  tail call fastcc void @_jumbleNode(ptr noundef %0, ptr noundef %8)
  %9 = getelementptr inbounds nuw i8, ptr %1, i64 32
  %10 = load ptr, ptr %9, align 8
  tail call fastcc void @_jumbleNode(ptr noundef %0, ptr noundef %10)
  %11 = getelementptr inbounds nuw i8, ptr %1, i64 40
  %12 = load ptr, ptr %11, align 8
  tail call fastcc void @_jumbleNode(ptr noundef %0, ptr noundef %12)
  %13 = getelementptr inbounds nuw i8, ptr %1, i64 48
  %14 = load ptr, ptr %13, align 8
  tail call fastcc void @_jumbleNode(ptr noundef %0, ptr noundef %14)
  %15 = getelementptr inbounds nuw i8, ptr %1, i64 56
  %16 = load ptr, ptr %15, align 8
  tail call fastcc void @_jumbleNode(ptr noundef %0, ptr noundef %16)
  %17 = getelementptr inbounds nuw i8, ptr %1, i64 64
  %18 = load ptr, ptr %17, align 8
  tail call fastcc void @_jumbleNode(ptr noundef %0, ptr noundef %18)
  %19 = getelementptr inbounds nuw i8, ptr %1, i64 72
  %20 = load ptr, ptr %19, align 8
  tail call fastcc void @_jumbleNode(ptr noundef %0, ptr noundef %20)
  %21 = getelementptr inbounds nuw i8, ptr %1, i64 80
  %22 = load ptr, ptr %0, align 8
  %23 = getelementptr inbounds nuw i8, ptr %0, i64 8
  %24 = load i64, ptr %23, align 8
  br label %.lr.ph.i

.lr.ph.i:                                         ; preds = %28, %2
  %.026.i = phi ptr [ %33, %28 ], [ %21, %2 ]
  %.02125.i = phi i64 [ %34, %28 ], [ 4, %2 ]
  %.02224.i = phi i64 [ %32, %28 ], [ %24, %2 ]
  %25 = icmp ugt i64 %.02224.i, 1023
  br i1 %25, label %26, label %28

26:                                               ; preds = %.lr.ph.i
  %27 = tail call i64 @hash_bytes_extended(ptr noundef %22, i32 noundef 1024, i64 noundef 0) #9
  store i64 %27, ptr %22, align 1
  br label %28

28:                                               ; preds = %26, %.lr.ph.i
  %.1.i = phi i64 [ 8, %26 ], [ %.02224.i, %.lr.ph.i ]
  %29 = sub nuw nsw i64 1024, %.1.i
  %30 = tail call i64 @llvm.umin.i64(i64 %.02125.i, i64 %29)
  %31 = getelementptr inbounds nuw i8, ptr %22, i64 %.1.i
  tail call void @llvm.memcpy.p0.p0.i64(ptr noundef nonnull align 1 dereferenceable(1) %31, ptr noundef nonnull align 1 dereferenceable(1) %.026.i, i64 %30, i1 false)
  %32 = add nuw nsw i64 %30, %.1.i
  %33 = getelementptr inbounds nuw i8, ptr %.026.i, i64 %30
  %34 = sub i64 %.02125.i, %30
  %.not.i = icmp eq i64 %34, 0
  br i1 %.not.i, label %AppendJumble.exit, label %.lr.ph.i, !llvm.loop !7

AppendJumble.exit:                                ; preds = %28
  store i64 %32, ptr %23, align 8
  %35 = getelementptr inbounds nuw i8, ptr %1, i64 88
  %36 = load ptr, ptr %35, align 8
  %.not = icmp eq ptr %36, null
  %.pre82.pre83 = load ptr, ptr %0, align 8
  br i1 %.not, label %50, label %37

37:                                               ; preds = %AppendJumble.exit
  %38 = tail call i64 @strlen(ptr noundef nonnull dereferenceable(1) %36) #8
  %39 = add i64 %38, 1
  %.not23.i = icmp eq i64 %39, 0
  br i1 %.not23.i, label %AppendJumble.exit47, label %.lr.ph.i41

.lr.ph.i41:                                       ; preds = %37, %43
  %.026.i42 = phi ptr [ %48, %43 ], [ %36, %37 ]
  %.02125.i43 = phi i64 [ %49, %43 ], [ %39, %37 ]
  %.02224.i44 = phi i64 [ %47, %43 ], [ %32, %37 ]
  %40 = icmp ugt i64 %.02224.i44, 1023
  br i1 %40, label %41, label %43

41:                                               ; preds = %.lr.ph.i41
  %42 = tail call i64 @hash_bytes_extended(ptr noundef %.pre82.pre83, i32 noundef 1024, i64 noundef 0) #9
  store i64 %42, ptr %.pre82.pre83, align 1
  br label %43

43:                                               ; preds = %41, %.lr.ph.i41
  %.1.i45 = phi i64 [ 8, %41 ], [ %.02224.i44, %.lr.ph.i41 ]
  %44 = sub nuw nsw i64 1024, %.1.i45
  %45 = tail call i64 @llvm.umin.i64(i64 %.02125.i43, i64 %44)
  %46 = getelementptr inbounds nuw i8, ptr %.pre82.pre83, i64 %.1.i45
  tail call void @llvm.memcpy.p0.p0.i64(ptr noundef nonnull align 1 dereferenceable(1) %46, ptr noundef nonnull align 1 dereferenceable(1) %.026.i42, i64 %45, i1 false)
  %47 = add nuw nsw i64 %45, %.1.i45
  %48 = getelementptr inbounds nuw i8, ptr %.026.i42, i64 %45
  %49 = sub i64 %.02125.i43, %45
  %.not.i46 = icmp eq i64 %49, 0
  br i1 %.not.i46, label %AppendJumble.exit47.loopexit, label %.lr.ph.i41, !llvm.loop !7

AppendJumble.exit47.loopexit:                     ; preds = %43
  %.pre82.pre.pre = load ptr, ptr %0, align 8
  br label %AppendJumble.exit47

AppendJumble.exit47:                              ; preds = %AppendJumble.exit47.loopexit, %37
  %.pre82.pre = phi ptr [ %.pre82.pre83, %37 ], [ %.pre82.pre.pre, %AppendJumble.exit47.loopexit ]
  %.022.lcssa.i = phi i64 [ %32, %37 ], [ %47, %AppendJumble.exit47.loopexit ]
  store i64 %.022.lcssa.i, ptr %23, align 8
  br label %50

50:                                               ; preds = %AppendJumble.exit, %AppendJumble.exit47
  %.pre82 = phi ptr [ %.pre82.pre83, %AppendJumble.exit ], [ %.pre82.pre, %AppendJumble.exit47 ]
  %51 = phi i64 [ %32, %AppendJumble.exit ], [ %.022.lcssa.i, %AppendJumble.exit47 ]
  %52 = getelementptr inbounds nuw i8, ptr %1, i64 96
  %53 = load ptr, ptr %52, align 8
  %.not39 = icmp eq ptr %53, null
  br i1 %.not39, label %67, label %54

54:                                               ; preds = %50
  %55 = tail call i64 @strlen(ptr noundef nonnull dereferenceable(1) %53) #8
  %56 = add i64 %55, 1
  %.not23.i48 = icmp eq i64 %56, 0
  br i1 %.not23.i48, label %AppendJumble.exit56, label %.lr.ph.i49

.lr.ph.i49:                                       ; preds = %54, %60
  %.026.i50 = phi ptr [ %65, %60 ], [ %53, %54 ]
  %.02125.i51 = phi i64 [ %66, %60 ], [ %56, %54 ]
  %.02224.i52 = phi i64 [ %64, %60 ], [ %51, %54 ]
  %57 = icmp ugt i64 %.02224.i52, 1023
  br i1 %57, label %58, label %60

58:                                               ; preds = %.lr.ph.i49
  %59 = tail call i64 @hash_bytes_extended(ptr noundef %.pre82, i32 noundef 1024, i64 noundef 0) #9
  store i64 %59, ptr %.pre82, align 1
  br label %60

60:                                               ; preds = %58, %.lr.ph.i49
  %.1.i53 = phi i64 [ 8, %58 ], [ %.02224.i52, %.lr.ph.i49 ]
  %61 = sub nuw nsw i64 1024, %.1.i53
  %62 = tail call i64 @llvm.umin.i64(i64 %.02125.i51, i64 %61)
  %63 = getelementptr inbounds nuw i8, ptr %.pre82, i64 %.1.i53
  tail call void @llvm.memcpy.p0.p0.i64(ptr noundef nonnull align 1 dereferenceable(1) %63, ptr noundef nonnull align 1 dereferenceable(1) %.026.i50, i64 %62, i1 false)
  %64 = add nuw nsw i64 %62, %.1.i53
  %65 = getelementptr inbounds nuw i8, ptr %.026.i50, i64 %62
  %66 = sub i64 %.02125.i51, %62
  %.not.i54 = icmp eq i64 %66, 0
  br i1 %.not.i54, label %AppendJumble.exit56.loopexit, label %.lr.ph.i49, !llvm.loop !7

AppendJumble.exit56.loopexit:                     ; preds = %60
  %.pre.pre = load ptr, ptr %0, align 8
  br label %AppendJumble.exit56

AppendJumble.exit56:                              ; preds = %AppendJumble.exit56.loopexit, %54
  %.pre = phi ptr [ %.pre82, %54 ], [ %.pre.pre, %AppendJumble.exit56.loopexit ]
  %.022.lcssa.i55 = phi i64 [ %51, %54 ], [ %64, %AppendJumble.exit56.loopexit ]
  store i64 %.022.lcssa.i55, ptr %23, align 8
  br label %67

67:                                               ; preds = %AppendJumble.exit56, %50
  %68 = phi i64 [ %.022.lcssa.i55, %AppendJumble.exit56 ], [ %51, %50 ]
  %69 = phi ptr [ %.pre, %AppendJumble.exit56 ], [ %.pre82, %50 ]
  %70 = getelementptr inbounds nuw i8, ptr %1, i64 104
  br label %.lr.ph.i57

.lr.ph.i57:                                       ; preds = %74, %67
  %.026.i58 = phi ptr [ %79, %74 ], [ %70, %67 ]
  %.02125.i59 = phi i64 [ %80, %74 ], [ 1, %67 ]
  %.02224.i60 = phi i64 [ %78, %74 ], [ %68, %67 ]
  %71 = icmp ugt i64 %.02224.i60, 1023
  br i1 %71, label %72, label %74

72:                                               ; preds = %.lr.ph.i57
  %73 = tail call i64 @hash_bytes_extended(ptr noundef %69, i32 noundef 1024, i64 noundef 0) #9
  store i64 %73, ptr %69, align 1
  br label %74

74:                                               ; preds = %72, %.lr.ph.i57
  %.1.i61 = phi i64 [ 8, %72 ], [ %.02224.i60, %.lr.ph.i57 ]
  %75 = sub nuw nsw i64 1024, %.1.i61
  %76 = tail call i64 @llvm.umin.i64(i64 %.02125.i59, i64 %75)
  %77 = getelementptr inbounds nuw i8, ptr %69, i64 %.1.i61
  tail call void @llvm.memcpy.p0.p0.i64(ptr noundef nonnull align 1 dereferenceable(1) %77, ptr noundef nonnull align 1 dereferenceable(1) %.026.i58, i64 %76, i1 false)
  %78 = add nuw nsw i64 %76, %.1.i61
  %79 = getelementptr inbounds nuw i8, ptr %.026.i58, i64 %76
  %80 = sub i64 %.02125.i59, %76
  %.not.i62 = icmp eq i64 %80, 0
  br i1 %.not.i62, label %AppendJumble.exit64, label %.lr.ph.i57, !llvm.loop !7

AppendJumble.exit64:                              ; preds = %74
  store i64 %78, ptr %23, align 8
  %81 = getelementptr inbounds nuw i8, ptr %1, i64 112
  %82 = load ptr, ptr %81, align 8
  %.not40 = icmp eq ptr %82, null
  br i1 %.not40, label %97, label %83

83:                                               ; preds = %AppendJumble.exit64
  %84 = tail call i64 @strlen(ptr noundef nonnull dereferenceable(1) %82) #8
  %85 = add i64 %84, 1
  %86 = load ptr, ptr %0, align 8
  %.not23.i65 = icmp eq i64 %85, 0
  br i1 %.not23.i65, label %AppendJumble.exit73, label %.lr.ph.i66

.lr.ph.i66:                                       ; preds = %83, %90
  %.026.i67 = phi ptr [ %95, %90 ], [ %82, %83 ]
  %.02125.i68 = phi i64 [ %96, %90 ], [ %85, %83 ]
  %.02224.i69 = phi i64 [ %94, %90 ], [ %78, %83 ]
  %87 = icmp ugt i64 %.02224.i69, 1023
  br i1 %87, label %88, label %90

88:                                               ; preds = %.lr.ph.i66
  %89 = tail call i64 @hash_bytes_extended(ptr noundef %86, i32 noundef 1024, i64 noundef 0) #9
  store i64 %89, ptr %86, align 1
  br label %90

90:                                               ; preds = %88, %.lr.ph.i66
  %.1.i70 = phi i64 [ 8, %88 ], [ %.02224.i69, %.lr.ph.i66 ]
  %91 = sub nuw nsw i64 1024, %.1.i70
  %92 = tail call i64 @llvm.umin.i64(i64 %.02125.i68, i64 %91)
  %93 = getelementptr inbounds nuw i8, ptr %86, i64 %.1.i70
  tail call void @llvm.memcpy.p0.p0.i64(ptr noundef nonnull align 1 dereferenceable(1) %93, ptr noundef nonnull align 1 dereferenceable(1) %.026.i67, i64 %92, i1 false)
  %94 = add nuw nsw i64 %92, %.1.i70
  %95 = getelementptr inbounds nuw i8, ptr %.026.i67, i64 %92
  %96 = sub i64 %.02125.i68, %92
  %.not.i71 = icmp eq i64 %96, 0
  br i1 %.not.i71, label %AppendJumble.exit73, label %.lr.ph.i66, !llvm.loop !7

AppendJumble.exit73:                              ; preds = %90, %83
  %.022.lcssa.i72 = phi i64 [ %78, %83 ], [ %94, %90 ]
  store i64 %.022.lcssa.i72, ptr %23, align 8
  br label %97

97:                                               ; preds = %AppendJumble.exit73, %AppendJumble.exit64
  %98 = getelementptr inbounds nuw i8, ptr %1, i64 120
  %99 = load ptr, ptr %98, align 8
  tail call fastcc void @_jumbleNode(ptr noundef nonnull %0, ptr noundef %99)
  ret void
}